target datalayout = "e-m:e-p270:32:32-p271:32:32-p272:64:64-i64:64-i128:128-f80:128-n8:16:32:64-S128"
target triple = "x86_64-pc-linux-gnu"

%struct.ossl_cmp_ctx_st = type { ptr, ptr, ptr, i32, ptr, ptr, ptr, ptr, ptr, i32, ptr, ptr, i32, i32, i32, i32, i64, ptr, ptr, i32, i32, ptr, ptr, ptr, ptr, ptr, i32, i32, i32, ptr, ptr, ptr, ptr, ptr, i64, ptr, i32, i32, ptr, ptr, ptr, ptr, ptr, ptr, ptr, ptr, i32, i32, ptr, ptr, i32, ptr, ptr, i32, ptr, ptr, i32, i32, ptr, ptr, i32, i32, ptr, ptr, i32, ptr, i32, ptr, i32, ptr, ptr, ptr, ptr, ptr, ptr }
%struct.ossl_cmp_msg_st = type { ptr, ptr, ptr, ptr, ptr, ptr }
%struct.ossl_cmp_pkibody_st = type { i32, %union.anon }
%union.anon = type { ptr }

@.str = private unnamed_addr constant [32 x i8] c"../openssl/crypto/cmp/cmp_vfy.c\00", align 1
@.str.2 = private unnamed_addr constant [3 x i8] c"%s\00", align 1
@.str.7 = private unnamed_addr constant [5 x i8] c"WARN\00", align 1
@__func__.check_cert_path_3gpp = private unnamed_addr constant [21 x i8] c"check_cert_path_3gpp\00", align 1
@.str.45 = private unnamed_addr constant [55 x i8] c"also exceptional 3GPP mode cert path validation failed\00", align 1

; Function Attrs: nounwind uwtable
define internal i32 @check_cert_path_3gpp(ptr noundef %0, ptr noundef %1, ptr noundef %2) #0 {
  %4 = alloca i32, align 4
  %5 = alloca ptr, align 8
  %6 = alloca ptr, align 8
  %7 = alloca ptr, align 8
  %8 = alloca i32, align 4
  %9 = alloca ptr, align 8
  %10 = alloca i32, align 4
  %11 = alloca ptr, align 8
  %12 = alloca ptr, align 8
  store ptr %0, ptr %5, align 8, !tbaa !3
  store ptr %1, ptr %6, align 8, !tbaa !36
  store ptr %2, ptr %7, align 8, !tbaa !10
  call void @llvm.lifetime.start.p0(i64 4, ptr %8) #5
  store i32 0, ptr %8, align 4, !tbaa !12
  call void @llvm.lifetime.start.p0(i64 8, ptr %9) #5
  %13 = load ptr, ptr %5, align 8, !tbaa !3
  %14 = getelementptr inbounds nuw %struct.ossl_cmp_ctx_st, ptr %13, i32 0, i32 27
  %15 = load i32, ptr %14, align 4, !tbaa !94
  %16 = icmp ne i32 %15, 0
  br i1 %16, label %18, label %17

17:                                               ; preds = %3
  store i32 0, ptr %4, align 4
  store i32 1, ptr %10, align 4
  br label %58

18:                                               ; preds = %3
  %19 = call ptr @X509_STORE_new()
  store ptr %19, ptr %9, align 8, !tbaa !8
  %20 = icmp eq ptr %19, null
  br i1 %20, label %28, label %21

21:                                               ; preds = %18
  %22 = load ptr, ptr %9, align 8, !tbaa !8
  %23 = load ptr, ptr %6, align 8, !tbaa !36
  %24 = getelementptr inbounds nuw %struct.ossl_cmp_msg_st, ptr %23, i32 0, i32 3
  %25 = load ptr, ptr %24, align 8, !tbaa !80
  %26 = call i32 @ossl_cmp_X509_STORE_add1_certs(ptr noundef %22, ptr noundef %25, i32 noundef 1)
  %27 = icmp ne i32 %26, 0
  br i1 %27, label %29, label %28

28:                                               ; preds = %21, %18
  br label %55

29:                                               ; preds = %21
  %30 = load ptr, ptr %5, align 8, !tbaa !3
  %31 = load ptr, ptr %9, align 8, !tbaa !8
  %32 = load ptr, ptr %7, align 8, !tbaa !10
  %33 = call i32 @OSSL_CMP_validate_cert_path(ptr noundef %30, ptr noundef %31, ptr noundef %32)
  store i32 %33, ptr %8, align 4, !tbaa !12
  %34 = load i32, ptr %8, align 4, !tbaa !12
  %35 = icmp ne i32 %34, 0
  br i1 %35, label %39, label %36

36:                                               ; preds = %29
  %37 = load ptr, ptr %5, align 8, !tbaa !3
  %38 = call i32 (i32, ptr, ptr, ptr, i32, ptr, ptr, ...) @ossl_cmp_print_log(i32 noundef 4, ptr noundef %37, ptr noundef @__func__.check_cert_path_3gpp, ptr noundef @.str, i32 noundef 344, ptr noundef @.str.7, ptr noundef @.str.2, ptr noundef @.str.45)
  br label %54

39:                                               ; preds = %29
  call void @llvm.lifetime.start.p0(i64 8, ptr %11) #5
  %40 = load ptr, ptr %6, align 8, !tbaa !36
  %41 = getelementptr inbounds nuw %struct.ossl_cmp_msg_st, ptr %40, i32 0, i32 1
  %42 = load ptr, ptr %41, align 8, !tbaa !42
  %43 = getelementptr inbounds nuw %struct.ossl_cmp_pkibody_st, ptr %42, i32 0, i32 1
  %44 = load ptr, ptr %43, align 8, !tbaa !52
  %45 = call ptr @ossl_cmp_certrepmessage_get0_certresponse(ptr noundef %44, i32 noundef 0)
  store ptr %45, ptr %11, align 8, !tbaa !97
  call void @llvm.lifetime.start.p0(i64 8, ptr %12) #5
  %46 = load ptr, ptr %5, align 8, !tbaa !3
  %47 = load ptr, ptr %11, align 8, !tbaa !97
  %48 = call ptr @ossl_cmp_certresponse_get1_cert(ptr noundef %46, ptr noundef %47)
  store ptr %48, ptr %12, align 8, !tbaa !10
  %49 = load ptr, ptr %5, align 8, !tbaa !3
  %50 = load ptr, ptr %9, align 8, !tbaa !8
  %51 = load ptr, ptr %12, align 8, !tbaa !10
  %52 = call i32 @OSSL_CMP_validate_cert_path(ptr noundef %49, ptr noundef %50, ptr noundef %51)
  store i32 %52, ptr %8, align 4, !tbaa !12
  %53 = load ptr, ptr %12, align 8, !tbaa !10
  call void @X509_free(ptr noundef %53)
  call void @llvm.lifetime.end.p0(i64 8, ptr %12) #5
  call void @llvm.lifetime.end.p0(i64 8, ptr %11) #5
  br label %54

54:                                               ; preds = %39, %36
  br label %55

55:                                               ; preds = %54, %28
  %56 = load ptr, ptr %9, align 8, !tbaa !8
  call void @X509_STORE_free(ptr noundef %56)
  %57 = load i32, ptr %8, align 4, !tbaa !12
  store i32 %57, ptr %4, align 4
  store i32 1, ptr %10, align 4
  br label %58

58:                                               ; preds = %55, %17
  call void @llvm.lifetime.end.p0(i64 8, ptr %9) #5
  call void @llvm.lifetime.end.p0(i64 4, ptr %8) #5
  %59 = load i32, ptr %4, align 4
  ret i32 %59
}