; Function Attrs: nounwind uwtable
define internal fastcc range(i32 0, 2) i32 @check_cert_path_3gpp(ptr noundef nonnull %0, ptr noundef nonnull readonly captures(none) %1, ptr noundef nonnull %2) unnamed_addr #0 {
  %4 = getelementptr inbounds nuw i8, ptr %0, i64 188
  %5 = load i32, ptr %4, align 4, !tbaa !74
  %.not = icmp eq i32 %5, 0
  br i1 %.not, label %26, label %6

6:                                                ; preds = %3
  %7 = tail call ptr @X509_STORE_new() #3
  %8 = icmp eq ptr %7, null
  br i1 %8, label %25, label %9

9:                                                ; preds = %6
  %10 = getelementptr inbounds nuw i8, ptr %1, i64 24
  %11 = load ptr, ptr %10, align 8, !tbaa !61
  %12 = tail call i32 @ossl_cmp_X509_STORE_add1_certs(ptr noundef nonnull %7, ptr noundef %11, i32 noundef 1) #3
  %.not20 = icmp eq i32 %12, 0
  br i1 %.not20, label %25, label %13

13:                                               ; preds = %9
  %14 = tail call i32 @OSSL_CMP_validate_cert_path(ptr noundef nonnull %0, ptr noundef nonnull %7, ptr noundef nonnull %2)
  %.not21 = icmp eq i32 %14, 0
  br i1 %.not21, label %15, label %17

15:                                               ; preds = %13
  %16 = tail call i32 (i32, ptr, ptr, ptr, i32, ptr, ptr, ...) @ossl_cmp_print_log(i32 noundef 4, ptr noundef nonnull %0, ptr noundef nonnull @__func__.check_cert_path_3gpp, ptr noundef nonnull @.str, i32 noundef 344, ptr noundef nonnull @.str.7, ptr noundef nonnull @.str.2, ptr noundef nonnull @.str.45) #3
  br label %25

17:                                               ; preds = %13
  %18 = getelementptr inbounds nuw i8, ptr %1, i64 8
  %19 = load ptr, ptr %18, align 8, !tbaa !32
  %20 = getelementptr inbounds nuw i8, ptr %19, i64 8
  %21 = load ptr, ptr %20, align 8, !tbaa !42
  %22 = tail call ptr @ossl_cmp_certrepmessage_get0_certresponse(ptr noundef %21, i32 noundef 0) #3
  %23 = tail call ptr @ossl_cmp_certresponse_get1_cert(ptr noundef nonnull %0, ptr noundef %22) #3
  %24 = tail call i32 @OSSL_CMP_validate_cert_path(ptr noundef nonnull %0, ptr noundef nonnull %7, ptr noundef %23)
  tail call void @X509_free(ptr noundef %23) #3
  br label %25

25:                                               ; preds = %15, %17, %6, %9
  %.017 = phi i32 [ 0, %6 ], [ %24, %17 ], [ 0, %15 ], [ 0, %9 ]
  tail call void @X509_STORE_free(ptr noundef %7) #3
  br label %26

26:                                               ; preds = %3, %25
  %.0 = phi i32 [ %.017, %25 ], [ 0, %3 ]
  ret i32 %.0
}